libaudiodecoder.so.0 libaudiodecoder0 #MINVER#
 _ZN16MultiTimerThreadILj1EE3runEv@Base 2.0.0~alpha1.8
 _ZN16MultiTimerThreadILj1EE4stopEv@Base 2.0.0~alpha1.8
 _ZN16MultiTimerThreadILj1EE6cancelEv@Base 2.0.0~alpha1.8
 _ZN18SimpleAudioDecoder10deactivateEv@Base 2.0.0~alpha1.8
 _ZN18SimpleAudioDecoder15checkNextPacketEP13DecoderPacket@Base 2.0.0~alpha1.8
 _ZN18SimpleAudioDecoder16handleNextPacketEPK13DecoderPacket@Base 2.0.0~alpha1.8
 _ZN18SimpleAudioDecoder16setWantedQualityERK21AudioQualityInterface@Base 2.0.0~alpha1.8
 _ZN18SimpleAudioDecoder5resetEv@Base 2.0.0~alpha1.8
 _ZN18SimpleAudioDecoder8activateEv@Base 2.0.0~alpha1.8
 _ZN18SimpleAudioDecoderC1EP20AudioWriterInterface@Base 2.0.0~alpha1.8
 _ZN18SimpleAudioDecoderC2EP20AudioWriterInterface@Base 2.0.0~alpha1.8
 _ZN18SimpleAudioDecoderD1Ev@Base 2.0.0~alpha1.8
 _ZN18SimpleAudioDecoderD2Ev@Base 2.0.0~alpha1.8
 _ZN20AdvancedAudioDecoder10deactivateEv@Base 2.0.0~alpha1.8
 _ZN20AdvancedAudioDecoder10timerEventEv@Base 2.0.0~alpha1.8
 _ZN20AdvancedAudioDecoder11getFragmentEPSt8multimapIKtPNS_13FrameFragmentESt4lessIS1_ESaISt4pairIS1_S3_EEEt@Base 2.0.0~alpha1.8
 _ZN20AdvancedAudioDecoder15checkNextPacketEP13DecoderPacket@Base 2.0.0~alpha1.8
 _ZN20AdvancedAudioDecoder15deleteFragmentsEPSt8multimapIKtPNS_13FrameFragmentESt4lessIS1_ESaISt4pairIS1_S3_EEE@Base 2.0.0~alpha1.8
 _ZN20AdvancedAudioDecoder16handleNextPacketEPK13DecoderPacket@Base 2.0.0~alpha1.8
 _ZN20AdvancedAudioDecoder16setWantedQualityERK21AudioQualityInterface@Base 2.0.0~alpha1.8
 _ZN20AdvancedAudioDecoder5resetEv@Base 2.0.0~alpha1.8
 _ZN20AdvancedAudioDecoder8activateEv@Base 2.0.0~alpha1.8
 _ZN20AdvancedAudioDecoderC1EP20AudioWriterInterface@Base 2.0.0~alpha1.8
 _ZN20AdvancedAudioDecoderC2EP20AudioWriterInterface@Base 2.0.0~alpha1.8
 _ZN20AdvancedAudioDecoderD0Ev@Base 2.0.0~alpha1.8
 _ZN20AdvancedAudioDecoderD1Ev@Base 2.0.0~alpha1.8
 _ZN20AdvancedAudioDecoderD2Ev@Base 2.0.0~alpha1.8
 _ZN22AudioDecoderRepository10addDecoderEP21AudioDecoderInterface@Base 2.0.0~alpha1.8
 _ZN22AudioDecoderRepository10deactivateEv@Base 2.0.0~alpha1.8
 _ZN22AudioDecoderRepository13removeDecoderEP21AudioDecoderInterface@Base 2.0.0~alpha1.8
 _ZN22AudioDecoderRepository15checkNextPacketEP13DecoderPacket@Base 2.0.0~alpha1.8
 _ZN22AudioDecoderRepository16handleNextPacketEPK13DecoderPacket@Base 2.0.0~alpha1.8
 _ZN22AudioDecoderRepository16setWantedQualityERK21AudioQualityInterface@Base 2.0.0~alpha1.8
 _ZN22AudioDecoderRepository22selectDecoderForTypeIDEt@Base 2.0.0~alpha1.8
 _ZN22AudioDecoderRepository5resetEv@Base 2.0.0~alpha1.8
 _ZN22AudioDecoderRepository8activateEv@Base 2.0.0~alpha1.8
 _ZN22AudioDecoderRepositoryC1Ev@Base 2.0.0~alpha1.8
 _ZN22AudioDecoderRepositoryC2Ev@Base 2.0.0~alpha1.8
 _ZN22AudioDecoderRepositoryD1Ev@Base 2.0.0~alpha1.8
 _ZN22AudioDecoderRepositoryD2Ev@Base 2.0.0~alpha1.8
 _ZNK18SimpleAudioDecoder11getChannelsEv@Base 2.0.0~alpha1.8
 _ZNK18SimpleAudioDecoder11getPositionEv@Base 2.0.0~alpha1.8
 _ZNK18SimpleAudioDecoder11getTypeNameEv@Base 2.0.0~alpha1.8
 _ZNK18SimpleAudioDecoder12getByteOrderEv@Base 2.0.0~alpha1.8
 _ZNK18SimpleAudioDecoder12getErrorCodeEv@Base 2.0.0~alpha1.8
 _ZNK18SimpleAudioDecoder12getMediaInfoER9MediaInfo@Base 2.0.0~alpha1.8
 _ZNK18SimpleAudioDecoder14getMaxPositionEv@Base 2.0.0~alpha1.8
 _ZNK18SimpleAudioDecoder15getSamplingRateEv@Base 2.0.0~alpha1.8
 _ZNK18SimpleAudioDecoder16getBitsPerSampleEv@Base 2.0.0~alpha1.8
 _ZNK18SimpleAudioDecoder16getWantedQualityEv@Base 2.0.0~alpha1.8
 _ZNK18SimpleAudioDecoder17getBytesPerSecondEv@Base 2.0.0~alpha1.8
 _ZNK18SimpleAudioDecoder7getBitsEv@Base 2.0.0~alpha1.8
 _ZNK18SimpleAudioDecoder9getTypeIDEv@Base 2.0.0~alpha1.8
 _ZNK20AdvancedAudioDecoder11getChannelsEv@Base 2.0.0~alpha1.8
 _ZNK20AdvancedAudioDecoder11getPositionEv@Base 2.0.0~alpha1.8
 _ZNK20AdvancedAudioDecoder11getTypeNameEv@Base 2.0.0~alpha1.8
 _ZNK20AdvancedAudioDecoder12getByteOrderEv@Base 2.0.0~alpha1.8
 _ZNK20AdvancedAudioDecoder12getErrorCodeEv@Base 2.0.0~alpha1.8
 _ZNK20AdvancedAudioDecoder12getMediaInfoER9MediaInfo@Base 2.0.0~alpha1.8
 _ZNK20AdvancedAudioDecoder14getMaxPositionEv@Base 2.0.0~alpha1.8
 _ZNK20AdvancedAudioDecoder15getSamplingRateEv@Base 2.0.0~alpha1.8
 _ZNK20AdvancedAudioDecoder16getBitsPerSampleEv@Base 2.0.0~alpha1.8
 _ZNK20AdvancedAudioDecoder16getWantedQualityEv@Base 2.0.0~alpha1.8
 _ZNK20AdvancedAudioDecoder17getBytesPerSecondEv@Base 2.0.0~alpha1.8
 _ZNK20AdvancedAudioDecoder7getBitsEv@Base 2.0.0~alpha1.8
 _ZNK20AdvancedAudioDecoder9getTypeIDEv@Base 2.0.0~alpha1.8
 _ZNK22AudioDecoderRepository11getChannelsEv@Base 2.0.0~alpha1.8
 _ZNK22AudioDecoderRepository11getPositionEv@Base 2.0.0~alpha1.8
 _ZNK22AudioDecoderRepository11getTypeNameEv@Base 2.0.0~alpha1.8
 _ZNK22AudioDecoderRepository12getByteOrderEv@Base 2.0.0~alpha1.8
 _ZNK22AudioDecoderRepository12getErrorCodeEv@Base 2.0.0~alpha1.8
 _ZNK22AudioDecoderRepository12getMediaInfoER9MediaInfo@Base 2.0.0~alpha1.8
 _ZNK22AudioDecoderRepository14getMaxPositionEv@Base 2.0.0~alpha1.8
 _ZNK22AudioDecoderRepository15getSamplingRateEv@Base 2.0.0~alpha1.8
 _ZNK22AudioDecoderRepository16getBitsPerSampleEv@Base 2.0.0~alpha1.8
 _ZNK22AudioDecoderRepository16getWantedQualityEv@Base 2.0.0~alpha1.8
 _ZNK22AudioDecoderRepository17getBytesPerSecondEv@Base 2.0.0~alpha1.8
 _ZNK22AudioDecoderRepository17getCurrentDecoderEv@Base 2.0.0~alpha1.8
 _ZNK22AudioDecoderRepository22getCurrentAudioDecoderEv@Base 2.0.0~alpha1.8
 _ZNK22AudioDecoderRepository7getBitsEv@Base 2.0.0~alpha1.8
 _ZNK22AudioDecoderRepository9getTypeIDEv@Base 2.0.0~alpha1.8
 _ZNSt8_Rb_treeIKtSt4pairIS0_P21AudioDecoderInterfaceESt10_Select1stIS4_ESt4lessIS0_ESaIS4_EE15_M_insert_equalERKS4_@Base 2.0.0~alpha1.8
 _ZNSt8_Rb_treeIKtSt4pairIS0_P21AudioDecoderInterfaceESt10_Select1stIS4_ESt4lessIS0_ESaIS4_EE8_M_eraseEPSt13_Rb_tree_nodeIS4_E@Base 2.0.0~alpha1.8
 _ZNSt8_Rb_treeIKtSt4pairIS0_PN20AdvancedAudioDecoder13FrameFragmentEESt10_Select1stIS5_ESt4lessIS0_ESaIS5_EE15_M_insert_equalERKS5_@Base 2.0.0~alpha1.8
 _ZNSt8_Rb_treeIKtSt4pairIS0_PN20AdvancedAudioDecoder13FrameFragmentEESt10_Select1stIS5_ESt4lessIS0_ESaIS5_EE8_M_eraseEPSt13_Rb_tree_nodeIS5_E@Base 2.0.0~alpha1.8
 _ZNSt8_Rb_treeIN20AdvancedAudioDecoder13FrameNodeItemES1_St9_IdentityIS1_ESt4lessIS1_ESaIS1_EE15_M_insert_equalERKS1_@Base 2.0.0~alpha1.8
 _ZNSt8_Rb_treeIN20AdvancedAudioDecoder13FrameNodeItemES1_St9_IdentityIS1_ESt4lessIS1_ESaIS1_EE8_M_eraseEPSt13_Rb_tree_nodeIS1_E@Base 2.0.0~alpha1.8
 _ZNSt8multisetIN20AdvancedAudioDecoder13FrameNodeItemESt4lessIS1_ESaIS1_EED1Ev@Base 2.0.0~alpha1.8
 _ZNSt8multisetIN20AdvancedAudioDecoder13FrameNodeItemESt4lessIS1_ESaIS1_EED2Ev@Base 2.0.0~alpha1.8
 _ZTC18SimpleAudioDecoder0_21AudioDecoderInterface@Base 2.0.0~alpha1.8
 _ZTC20AdvancedAudioDecoder0_21AudioDecoderInterface@Base 2.0.0~alpha1.8
 _ZTC22AudioDecoderRepository0_26DecoderRepositoryInterface@Base 2.0.0~alpha1.8
 _ZTC22AudioDecoderRepository72_21AudioDecoderInterface@Base 2.0.0~alpha1.8
 _ZTI14Synchronizable@Base 2.0.0~alpha1.8
 _ZTI16DecoderInterface@Base 2.0.0~alpha1.8
 _ZTI18SimpleAudioDecoder@Base 2.0.0~alpha1.8
 _ZTI20AdvancedAudioDecoder@Base 2.0.0~alpha1.8
 _ZTI21AudioDecoderInterface@Base 2.0.0~alpha1.8
 _ZTI21AudioQualityInterface@Base 2.0.0~alpha1.8
 _ZTI22AudioDecoderRepository@Base 2.0.0~alpha1.8
 _ZTI26DecoderRepositoryInterface@Base 2.0.0~alpha1.8
 _ZTS14Synchronizable@Base 2.0.0~alpha1.8
 _ZTS16DecoderInterface@Base 2.0.0~alpha1.8
 _ZTS18SimpleAudioDecoder@Base 2.0.0~alpha1.8
 _ZTS20AdvancedAudioDecoder@Base 2.0.0~alpha1.8
 _ZTS21AudioDecoderInterface@Base 2.0.0~alpha1.8
 _ZTS21AudioQualityInterface@Base 2.0.0~alpha1.8
 _ZTS22AudioDecoderRepository@Base 2.0.0~alpha1.8
 _ZTS26DecoderRepositoryInterface@Base 2.0.0~alpha1.8
 _ZTT18SimpleAudioDecoder@Base 2.0.0~alpha1.8
 _ZTT20AdvancedAudioDecoder@Base 2.0.0~alpha1.8
 _ZTT22AudioDecoderRepository@Base 2.0.0~alpha1.8
 _ZTV16DecoderInterface@Base 2.0.0~alpha1.8
 _ZTV18SimpleAudioDecoder@Base 2.0.0~alpha1.8
 _ZTV20AdvancedAudioDecoder@Base 2.0.0~alpha1.8
 _ZTV21AudioQualityInterface@Base 2.0.0~alpha1.8
 _ZTV22AudioDecoderRepository@Base 2.0.0~alpha1.8
 _ZThn8_N20AdvancedAudioDecoder10timerEventEv@Base 2.0.0~alpha1.8
 _ZThn8_N20AdvancedAudioDecoderD0Ev@Base 2.0.0~alpha1.8
 _ZThn8_N20AdvancedAudioDecoderD1Ev@Base 2.0.0~alpha1.8
 _ZTv0_n104_NK18SimpleAudioDecoder14getMaxPositionEv@Base 2.0.0~alpha1.8
 _ZTv0_n104_NK20AdvancedAudioDecoder14getMaxPositionEv@Base 2.0.0~alpha1.8
 _ZTv0_n104_NK22AudioDecoderRepository14getMaxPositionEv@Base 2.0.0~alpha1.8
 _ZTv0_n120_N22AudioDecoderRepository22selectDecoderForTypeIDEt@Base 2.0.0~alpha1.8
 _ZTv0_n128_NK22AudioDecoderRepository16getWantedQualityEv@Base 2.0.0~alpha1.8
 _ZTv0_n128_NK22AudioDecoderRepository17getCurrentDecoderEv@Base 2.0.0~alpha1.8
 _ZTv0_n136_N22AudioDecoderRepository16setWantedQualityERK21AudioQualityInterface@Base 2.0.0~alpha1.8
 _ZTv0_n24_NK18SimpleAudioDecoder15getSamplingRateEv@Base 2.0.0~alpha1.8
 _ZTv0_n24_NK18SimpleAudioDecoder9getTypeIDEv@Base 2.0.0~alpha1.8
 _ZTv0_n24_NK20AdvancedAudioDecoder15getSamplingRateEv@Base 2.0.0~alpha1.8
 _ZTv0_n24_NK20AdvancedAudioDecoder9getTypeIDEv@Base 2.0.0~alpha1.8
 _ZTv0_n24_NK22AudioDecoderRepository15getSamplingRateEv@Base 2.0.0~alpha1.8
 _ZTv0_n24_NK22AudioDecoderRepository9getTypeIDEv@Base 2.0.0~alpha1.8
 _ZTv0_n32_NK18SimpleAudioDecoder11getTypeNameEv@Base 2.0.0~alpha1.8
 _ZTv0_n32_NK18SimpleAudioDecoder7getBitsEv@Base 2.0.0~alpha1.8
 _ZTv0_n32_NK20AdvancedAudioDecoder11getTypeNameEv@Base 2.0.0~alpha1.8
 _ZTv0_n32_NK20AdvancedAudioDecoder7getBitsEv@Base 2.0.0~alpha1.8
 _ZTv0_n32_NK22AudioDecoderRepository11getTypeNameEv@Base 2.0.0~alpha1.8
 _ZTv0_n32_NK22AudioDecoderRepository7getBitsEv@Base 2.0.0~alpha1.8
 _ZTv0_n40_N18SimpleAudioDecoder8activateEv@Base 2.0.0~alpha1.8
 _ZTv0_n40_N20AdvancedAudioDecoder8activateEv@Base 2.0.0~alpha1.8
 _ZTv0_n40_N22AudioDecoderRepository8activateEv@Base 2.0.0~alpha1.8
 _ZTv0_n40_NK18SimpleAudioDecoder11getChannelsEv@Base 2.0.0~alpha1.8
 _ZTv0_n40_NK20AdvancedAudioDecoder11getChannelsEv@Base 2.0.0~alpha1.8
 _ZTv0_n40_NK22AudioDecoderRepository11getChannelsEv@Base 2.0.0~alpha1.8
 _ZTv0_n48_N18SimpleAudioDecoder10deactivateEv@Base 2.0.0~alpha1.8
 _ZTv0_n48_N20AdvancedAudioDecoder10deactivateEv@Base 2.0.0~alpha1.8
 _ZTv0_n48_N22AudioDecoderRepository10deactivateEv@Base 2.0.0~alpha1.8
 _ZTv0_n48_NK18SimpleAudioDecoder12getByteOrderEv@Base 2.0.0~alpha1.8
 _ZTv0_n48_NK20AdvancedAudioDecoder12getByteOrderEv@Base 2.0.0~alpha1.8
 _ZTv0_n48_NK22AudioDecoderRepository12getByteOrderEv@Base 2.0.0~alpha1.8
 _ZTv0_n56_N18SimpleAudioDecoder5resetEv@Base 2.0.0~alpha1.8
 _ZTv0_n56_N20AdvancedAudioDecoder5resetEv@Base 2.0.0~alpha1.8
 _ZTv0_n56_N22AudioDecoderRepository5resetEv@Base 2.0.0~alpha1.8
 _ZTv0_n56_NK18SimpleAudioDecoder17getBytesPerSecondEv@Base 2.0.0~alpha1.8
 _ZTv0_n56_NK20AdvancedAudioDecoder17getBytesPerSecondEv@Base 2.0.0~alpha1.8
 _ZTv0_n56_NK22AudioDecoderRepository17getBytesPerSecondEv@Base 2.0.0~alpha1.8
 _ZTv0_n64_N18SimpleAudioDecoder15checkNextPacketEP13DecoderPacket@Base 2.0.0~alpha1.8
 _ZTv0_n64_N20AdvancedAudioDecoder15checkNextPacketEP13DecoderPacket@Base 2.0.0~alpha1.8
 _ZTv0_n64_N22AudioDecoderRepository15checkNextPacketEP13DecoderPacket@Base 2.0.0~alpha1.8
 _ZTv0_n64_NK18SimpleAudioDecoder16getBitsPerSampleEv@Base 2.0.0~alpha1.8
 _ZTv0_n64_NK20AdvancedAudioDecoder16getBitsPerSampleEv@Base 2.0.0~alpha1.8
 _ZTv0_n64_NK22AudioDecoderRepository16getBitsPerSampleEv@Base 2.0.0~alpha1.8
 _ZTv0_n72_N18SimpleAudioDecoder16handleNextPacketEPK13DecoderPacket@Base 2.0.0~alpha1.8
 _ZTv0_n72_N20AdvancedAudioDecoder16handleNextPacketEPK13DecoderPacket@Base 2.0.0~alpha1.8
 _ZTv0_n72_N22AudioDecoderRepository16handleNextPacketEPK13DecoderPacket@Base 2.0.0~alpha1.8
 _ZTv0_n80_NK18SimpleAudioDecoder12getMediaInfoER9MediaInfo@Base 2.0.0~alpha1.8
 _ZTv0_n80_NK20AdvancedAudioDecoder12getMediaInfoER9MediaInfo@Base 2.0.0~alpha1.8
 _ZTv0_n80_NK22AudioDecoderRepository12getMediaInfoER9MediaInfo@Base 2.0.0~alpha1.8
 _ZTv0_n88_NK18SimpleAudioDecoder12getErrorCodeEv@Base 2.0.0~alpha1.8
 _ZTv0_n88_NK20AdvancedAudioDecoder12getErrorCodeEv@Base 2.0.0~alpha1.8
 _ZTv0_n88_NK22AudioDecoderRepository12getErrorCodeEv@Base 2.0.0~alpha1.8
 _ZTv0_n96_NK18SimpleAudioDecoder11getPositionEv@Base 2.0.0~alpha1.8
 _ZTv0_n96_NK20AdvancedAudioDecoder11getPositionEv@Base 2.0.0~alpha1.8
 _ZTv0_n96_NK22AudioDecoderRepository11getPositionEv@Base 2.0.0~alpha1.8
