libaudiowriter.so.0 libaudiowriter0 #MINVER#
 _ZN10AudioDebug11setChannelsEh@Base 2.0.0~alpha1.8
 _ZN10AudioDebug12setByteOrderEt@Base 2.0.0~alpha1.8
 _ZN10AudioDebug15setSamplingRateEt@Base 2.0.0~alpha1.8
 _ZN10AudioDebug4syncEv@Base 2.0.0~alpha1.8
 _ZN10AudioDebug7setBitsEh@Base 2.0.0~alpha1.8
 _ZN10AudioDebugC1Ev@Base 2.0.0~alpha1.8
 _ZN10AudioDebugC2Ev@Base 2.0.0~alpha1.8
 _ZN10AudioDebugD1Ev@Base 2.0.0~alpha1.8
 _ZN10AudioDebugD2Ev@Base 2.0.0~alpha1.8
 _ZN10AudioMixer9getVolumeERhS0_@Base 2.0.0~alpha1.8
 _ZN10AudioMixer9setVolumeEhh@Base 2.0.0~alpha1.8
 _ZN10AudioMixerC1EP11AudioDeviceiPKc@Base 2.0.0~alpha1.8
 _ZN10AudioMixerC2EP11AudioDeviceiPKc@Base 2.0.0~alpha1.8
 _ZN10AudioMixerD1Ev@Base 2.0.0~alpha1.8
 _ZN10AudioMixerD2Ev@Base 2.0.0~alpha1.8
 _ZN11AudioDevice11setChannelsEh@Base 2.0.0~alpha1.8
 _ZN11AudioDevice12setByteOrderEt@Base 2.0.0~alpha1.8
 _ZN11AudioDevice15setSamplingRateEt@Base 2.0.0~alpha1.8
 _ZN11AudioDevice3runEv@Base 2.0.0~alpha1.8
 _ZN11AudioDevice4syncEv@Base 2.0.0~alpha1.8
 _ZN11AudioDevice7setBitsEh@Base 2.0.0~alpha1.8
 _ZN11AudioDeviceC1EPKc@Base 2.0.0~alpha1.8
 _ZN11AudioDeviceC2EPKc@Base 2.0.0~alpha1.8
 _ZN11AudioDeviceD0Ev@Base 2.0.0~alpha1.8
 _ZN11AudioDeviceD1Ev@Base 2.0.0~alpha1.8
 _ZN11AudioDeviceD2Ev@Base 2.0.0~alpha1.8
 _ZN16MultiAudioWriter11setChannelsEh@Base 2.0.0~alpha1.8
 _ZN16MultiAudioWriter12removeWriterEP20AudioWriterInterface@Base 2.0.0~alpha1.8
 _ZN16MultiAudioWriter12setByteOrderEt@Base 2.0.0~alpha1.8
 _ZN16MultiAudioWriter15setSamplingRateEt@Base 2.0.0~alpha1.8
 _ZN16MultiAudioWriter4syncEv@Base 2.0.0~alpha1.8
 _ZN16MultiAudioWriter7setBitsEh@Base 2.0.0~alpha1.8
 _ZN16MultiAudioWriter9addWriterEP20AudioWriterInterface@Base 2.0.0~alpha1.8
 _ZN16MultiAudioWriterC1Ev@Base 2.0.0~alpha1.8
 _ZN16MultiAudioWriterC2Ev@Base 2.0.0~alpha1.8
 _ZN16MultiAudioWriterD1Ev@Base 2.0.0~alpha1.8
 _ZN16MultiAudioWriterD2Ev@Base 2.0.0~alpha1.8
 _ZN16SpectrumAnalyzer11getSpectrumEPjS0_j@Base 2.0.0~alpha1.8
 _ZN16SpectrumAnalyzer11setChannelsEh@Base 2.0.0~alpha1.8
 _ZN16SpectrumAnalyzer12setByteOrderEt@Base 2.0.0~alpha1.8
 _ZN16SpectrumAnalyzer15setSamplingRateEt@Base 2.0.0~alpha1.8
 _ZN16SpectrumAnalyzer23doFourierTransformationEPtPjj@Base 2.0.0~alpha1.8
 _ZN16SpectrumAnalyzer4syncEv@Base 2.0.0~alpha1.8
 _ZN16SpectrumAnalyzer7setBitsEh@Base 2.0.0~alpha1.8
 _ZN16SpectrumAnalyzerC1Ev@Base 2.0.0~alpha1.8
 _ZN16SpectrumAnalyzerC2Ev@Base 2.0.0~alpha1.8
 _ZN16SpectrumAnalyzerD1Ev@Base 2.0.0~alpha1.8
 _ZN16SpectrumAnalyzerD2Ev@Base 2.0.0~alpha1.8
 _ZN25FastFourierTransformation14getBitReversedEv@Base 2.0.0~alpha1.8
 _ZN25FastFourierTransformation3fftEPs@Base 2.0.0~alpha1.8
 _ZN25FastFourierTransformationC1Ei@Base 2.0.0~alpha1.8
 _ZN25FastFourierTransformationC2Ei@Base 2.0.0~alpha1.8
 _ZN25FastFourierTransformationD1Ev@Base 2.0.0~alpha1.8
 _ZN25FastFourierTransformationD2Ev@Base 2.0.0~alpha1.8
 _ZN9AudioNull4syncEv@Base 2.0.0~alpha1.8
 _ZN9AudioNullC1Ev@Base 2.0.0~alpha1.8
 _ZN9AudioNullC2Ev@Base 2.0.0~alpha1.8
 _ZN9AudioNullD1Ev@Base 2.0.0~alpha1.8
 _ZN9AudioNullD2Ev@Base 2.0.0~alpha1.8
 _ZNK10AudioDebug11getChannelsEv@Base 2.0.0~alpha1.8
 _ZNK10AudioDebug12getByteOrderEv@Base 2.0.0~alpha1.8
 _ZNK10AudioDebug15getSamplingRateEv@Base 2.0.0~alpha1.8
 _ZNK10AudioDebug16getBitsPerSampleEv@Base 2.0.0~alpha1.8
 _ZNK10AudioDebug17getBytesPerSecondEv@Base 2.0.0~alpha1.8
 _ZNK10AudioDebug5readyEv@Base 2.0.0~alpha1.8
 _ZNK10AudioDebug7getBitsEv@Base 2.0.0~alpha1.8
 _ZNK11AudioDevice11getChannelsEv@Base 2.0.0~alpha1.8
 _ZNK11AudioDevice12getByteOrderEv@Base 2.0.0~alpha1.8
 _ZNK11AudioDevice15getSamplingRateEv@Base 2.0.0~alpha1.8
 _ZNK11AudioDevice16getBitsPerSampleEv@Base 2.0.0~alpha1.8
 _ZNK11AudioDevice17getBytesPerSecondEv@Base 2.0.0~alpha1.8
 _ZNK11AudioDevice5readyEv@Base 2.0.0~alpha1.8
 _ZNK11AudioDevice7getBitsEv@Base 2.0.0~alpha1.8
 _ZNK16MultiAudioWriter11getChannelsEv@Base 2.0.0~alpha1.8
 _ZNK16MultiAudioWriter12getByteOrderEv@Base 2.0.0~alpha1.8
 _ZNK16MultiAudioWriter15getSamplingRateEv@Base 2.0.0~alpha1.8
 _ZNK16MultiAudioWriter16getBitsPerSampleEv@Base 2.0.0~alpha1.8
 _ZNK16MultiAudioWriter17getBytesPerSecondEv@Base 2.0.0~alpha1.8
 _ZNK16MultiAudioWriter5readyEv@Base 2.0.0~alpha1.8
 _ZNK16MultiAudioWriter7getBitsEv@Base 2.0.0~alpha1.8
 _ZNK16SpectrumAnalyzer11getChannelsEv@Base 2.0.0~alpha1.8
 _ZNK16SpectrumAnalyzer12getByteOrderEv@Base 2.0.0~alpha1.8
 _ZNK16SpectrumAnalyzer15getSamplingRateEv@Base 2.0.0~alpha1.8
 _ZNK16SpectrumAnalyzer16getBitsPerSampleEv@Base 2.0.0~alpha1.8
 _ZNK16SpectrumAnalyzer17getBytesPerSecondEv@Base 2.0.0~alpha1.8
 _ZNK16SpectrumAnalyzer5readyEv@Base 2.0.0~alpha1.8
 _ZNK16SpectrumAnalyzer7getBitsEv@Base 2.0.0~alpha1.8
 _ZNK9AudioNull5readyEv@Base 2.0.0~alpha1.8
 _ZNSt8_Rb_treeIP20AudioWriterInterfaceS1_St9_IdentityIS1_ESt4lessIS1_ESaIS1_EE15_M_insert_equalERKS1_@Base 2.0.0~alpha1.8
 _ZNSt8_Rb_treeIP20AudioWriterInterfaceS1_St9_IdentityIS1_ESt4lessIS1_ESaIS1_EE8_M_eraseEPSt13_Rb_tree_nodeIS1_E@Base 2.0.0~alpha1.8
 _ZTC10AudioDebug0_20AudioWriterInterface@Base 2.0.0~alpha1.8
 _ZTC10AudioDebug0_31AdjustableAudioQualityInterface@Base 2.0.0~alpha1.8
 _ZTC11AudioDevice560_20AudioWriterInterface@Base 2.0.0~alpha1.8
 _ZTC11AudioDevice560_31AdjustableAudioQualityInterface@Base 2.0.0~alpha1.8
 _ZTC16MultiAudioWriter0_20AudioWriterInterface@Base 2.0.0~alpha1.8
 _ZTC16MultiAudioWriter0_31AdjustableAudioQualityInterface@Base 2.0.0~alpha1.8
 _ZTC16SpectrumAnalyzer0_20AudioWriterInterface@Base 2.0.0~alpha1.8
 _ZTC16SpectrumAnalyzer0_31AdjustableAudioQualityInterface@Base 2.0.0~alpha1.8
 _ZTC9AudioNull0_12AudioQuality@Base 2.0.0~alpha1.8
 _ZTC9AudioNull16_20AudioWriterInterface@Base 2.0.0~alpha1.8
 _ZTC9AudioNull16_31AdjustableAudioQualityInterface@Base 2.0.0~alpha1.8
 _ZTI10AudioDebug@Base 2.0.0~alpha1.8
 _ZTI11AudioDevice@Base 2.0.0~alpha1.8
 _ZTI14Synchronizable@Base 2.0.0~alpha1.8
 _ZTI16MultiAudioWriter@Base 2.0.0~alpha1.8
 _ZTI16SpectrumAnalyzer@Base 2.0.0~alpha1.8
 _ZTI20AudioWriterInterface@Base 2.0.0~alpha1.8
 _ZTI21AudioQualityInterface@Base 2.0.0~alpha1.8
 _ZTI31AdjustableAudioQualityInterface@Base 2.0.0~alpha1.8
 _ZTI9AudioNull@Base 2.0.0~alpha1.8
 _ZTS10AudioDebug@Base 2.0.0~alpha1.8
 _ZTS11AudioDevice@Base 2.0.0~alpha1.8
 _ZTS14Synchronizable@Base 2.0.0~alpha1.8
 _ZTS16MultiAudioWriter@Base 2.0.0~alpha1.8
 _ZTS16SpectrumAnalyzer@Base 2.0.0~alpha1.8
 _ZTS20AudioWriterInterface@Base 2.0.0~alpha1.8
 _ZTS21AudioQualityInterface@Base 2.0.0~alpha1.8
 _ZTS31AdjustableAudioQualityInterface@Base 2.0.0~alpha1.8
 _ZTS9AudioNull@Base 2.0.0~alpha1.8
 _ZTT10AudioDebug@Base 2.0.0~alpha1.8
 _ZTT11AudioDevice@Base 2.0.0~alpha1.8
 _ZTT16MultiAudioWriter@Base 2.0.0~alpha1.8
 _ZTT16SpectrumAnalyzer@Base 2.0.0~alpha1.8
 _ZTT9AudioNull@Base 2.0.0~alpha1.8
 _ZTV10AudioDebug@Base 2.0.0~alpha1.8
 _ZTV11AudioDevice@Base 2.0.0~alpha1.8
 _ZTV16MultiAudioWriter@Base 2.0.0~alpha1.8
 _ZTV16SpectrumAnalyzer@Base 2.0.0~alpha1.8
 _ZTV21AudioQualityInterface@Base 2.0.0~alpha1.8
 _ZTV9AudioNull@Base 2.0.0~alpha1.8
 _ZTv0_n104_N10AudioDebug12setByteOrderEt@Base 2.0.0~alpha1.8
 _ZTv0_n104_N11AudioDevice12setByteOrderEt@Base 2.0.0~alpha1.8
 _ZTv0_n104_N16MultiAudioWriter12setByteOrderEt@Base 2.0.0~alpha1.8
 _ZTv0_n104_N16SpectrumAnalyzer12setByteOrderEt@Base 2.0.0~alpha1.8
 _ZTv0_n120_NK10AudioDebug5readyEv@Base 2.0.0~alpha1.8
 _ZTv0_n120_NK11AudioDevice5readyEv@Base 2.0.0~alpha1.8
 _ZTv0_n120_NK16MultiAudioWriter5readyEv@Base 2.0.0~alpha1.8
 _ZTv0_n120_NK16SpectrumAnalyzer5readyEv@Base 2.0.0~alpha1.8
 _ZTv0_n120_NK9AudioNull5readyEv@Base 2.0.0~alpha1.8
 _ZTv0_n128_N10AudioDebug4syncEv@Base 2.0.0~alpha1.8
 _ZTv0_n128_N11AudioDevice4syncEv@Base 2.0.0~alpha1.8
 _ZTv0_n128_N16MultiAudioWriter4syncEv@Base 2.0.0~alpha1.8
 _ZTv0_n128_N16SpectrumAnalyzer4syncEv@Base 2.0.0~alpha1.8
 _ZTv0_n128_N9AudioNull4syncEv@Base 2.0.0~alpha1.8
 _ZTv0_n24_NK10AudioDebug15getSamplingRateEv@Base 2.0.0~alpha1.8
 _ZTv0_n24_NK11AudioDevice15getSamplingRateEv@Base 2.0.0~alpha1.8
 _ZTv0_n24_NK16MultiAudioWriter15getSamplingRateEv@Base 2.0.0~alpha1.8
 _ZTv0_n24_NK16SpectrumAnalyzer15getSamplingRateEv@Base 2.0.0~alpha1.8
 _ZTv0_n32_NK10AudioDebug7getBitsEv@Base 2.0.0~alpha1.8
 _ZTv0_n32_NK11AudioDevice7getBitsEv@Base 2.0.0~alpha1.8
 _ZTv0_n32_NK16MultiAudioWriter7getBitsEv@Base 2.0.0~alpha1.8
 _ZTv0_n32_NK16SpectrumAnalyzer7getBitsEv@Base 2.0.0~alpha1.8
 _ZTv0_n40_NK10AudioDebug11getChannelsEv@Base 2.0.0~alpha1.8
 _ZTv0_n40_NK11AudioDevice11getChannelsEv@Base 2.0.0~alpha1.8
 _ZTv0_n40_NK16MultiAudioWriter11getChannelsEv@Base 2.0.0~alpha1.8
 _ZTv0_n40_NK16SpectrumAnalyzer11getChannelsEv@Base 2.0.0~alpha1.8
 _ZTv0_n48_NK10AudioDebug12getByteOrderEv@Base 2.0.0~alpha1.8
 _ZTv0_n48_NK11AudioDevice12getByteOrderEv@Base 2.0.0~alpha1.8
 _ZTv0_n48_NK16MultiAudioWriter12getByteOrderEv@Base 2.0.0~alpha1.8
 _ZTv0_n48_NK16SpectrumAnalyzer12getByteOrderEv@Base 2.0.0~alpha1.8
 _ZTv0_n56_NK10AudioDebug17getBytesPerSecondEv@Base 2.0.0~alpha1.8
 _ZTv0_n56_NK11AudioDevice17getBytesPerSecondEv@Base 2.0.0~alpha1.8
 _ZTv0_n56_NK16MultiAudioWriter17getBytesPerSecondEv@Base 2.0.0~alpha1.8
 _ZTv0_n56_NK16SpectrumAnalyzer17getBytesPerSecondEv@Base 2.0.0~alpha1.8
 _ZTv0_n64_NK10AudioDebug16getBitsPerSampleEv@Base 2.0.0~alpha1.8
 _ZTv0_n64_NK11AudioDevice16getBitsPerSampleEv@Base 2.0.0~alpha1.8
 _ZTv0_n64_NK16MultiAudioWriter16getBitsPerSampleEv@Base 2.0.0~alpha1.8
 _ZTv0_n64_NK16SpectrumAnalyzer16getBitsPerSampleEv@Base 2.0.0~alpha1.8
 _ZTv0_n80_N10AudioDebug15setSamplingRateEt@Base 2.0.0~alpha1.8
 _ZTv0_n80_N11AudioDevice15setSamplingRateEt@Base 2.0.0~alpha1.8
 _ZTv0_n80_N16MultiAudioWriter15setSamplingRateEt@Base 2.0.0~alpha1.8
 _ZTv0_n80_N16SpectrumAnalyzer15setSamplingRateEt@Base 2.0.0~alpha1.8
 _ZTv0_n88_N10AudioDebug7setBitsEh@Base 2.0.0~alpha1.8
 _ZTv0_n88_N11AudioDevice7setBitsEh@Base 2.0.0~alpha1.8
 _ZTv0_n88_N16MultiAudioWriter7setBitsEh@Base 2.0.0~alpha1.8
 _ZTv0_n88_N16SpectrumAnalyzer7setBitsEh@Base 2.0.0~alpha1.8
 _ZTv0_n96_N10AudioDebug11setChannelsEh@Base 2.0.0~alpha1.8
 _ZTv0_n96_N11AudioDevice11setChannelsEh@Base 2.0.0~alpha1.8
 _ZTv0_n96_N16MultiAudioWriter11setChannelsEh@Base 2.0.0~alpha1.8
 _ZTv0_n96_N16SpectrumAnalyzer11setChannelsEh@Base 2.0.0~alpha1.8
 (c++|regex)"^AudioDebug::write\(.*\)@Base" 2.0.0~alpha1.8
 (c++|regex)"^AudioDevice::write\(.*\)@Base" 2.0.0~alpha1.8
 (c++|regex)"^AudioNull::write\(.*\)@Base" 2.0.0~alpha1.8
 (c++|regex)"^MultiAudioWriter::write\(.*\)@Base" 2.0.0~alpha1.8
 (c++|regex)"^SpectrumAnalyzer::write\(.*\)@Base" 2.0.0~alpha1.8
 (c++|regex)"^virtual thunk to AudioDebug::write\(.*\)@Base" 2.0.0~alpha1.8
 (c++|regex)"^virtual thunk to AudioDevice::write\(.*\)@Base" 2.0.0~alpha1.8
 (c++|regex)"^virtual thunk to AudioNull::write\(.*\)@Base" 2.0.0~alpha1.8
 (c++|regex)"^virtual thunk to MultiAudioWriter::write\(.*\)@Base" 2.0.0~alpha1.8
 (c++|regex)"^virtual thunk to SpectrumAnalyzer::write\(.*\)@Base" 2.0.0~alpha1.8
