libmpegsound.so.0 libmpegsound0 #MINVER#
 _Z13GetXingHeaderP9XHEADDATAPh@Base 2.0.0~alpha1.12
 _Z9SeekPointPhif@Base 2.0.0~alpha1.12
 _ZN10Fileplayer10opendeviceEPKc9soundtype@Base 2.0.0~alpha1.12
 _ZN10Fileplayer10set_driverENS_13audiodriver_tE@Base 2.0.0~alpha1.12
 _ZN10FileplayerC1Ev@Base 2.0.0~alpha1.12
 _ZN10FileplayerC2Ev@Base 2.0.0~alpha1.12
 _ZN10FileplayerD0Ev@Base 2.0.0~alpha1.12
 _ZN10FileplayerD1Ev@Base 2.0.0~alpha1.12
 _ZN10FileplayerD2Ev@Base 2.0.0~alpha1.12
 _ZN11Soundplayer12getblocksizeEv@Base 2.0.0~alpha1.12
 _ZN11Soundplayer14fix_samplesizeEPvi@Base 2.0.0~alpha1.12
 _ZN11Soundplayer14resetsoundtypeEv@Base 2.0.0~alpha1.12
 _ZN11Soundplayer5abortEv@Base 2.0.0~alpha1.12
 _ZN11SoundplayerD0Ev@Base 2.0.0~alpha1.12
 _ZN11SoundplayerD1Ev@Base 2.0.0~alpha1.12
 _ZN11SoundplayerD2Ev@Base 2.0.0~alpha1.12
 _ZN12CyclicBuffer10emptySpaceEv@Base 2.0.0~alpha1.12
 _ZN12CyclicBuffer11contentSizeEv@Base 2.0.0~alpha1.12
 _ZN12CyclicBuffer18emptySpaceInternalEv@Base 2.0.0~alpha1.12
 _ZN12CyclicBuffer19contentSizeInternalEv@Base 2.0.0~alpha1.12
 _ZN12CyclicBuffer4lockEv@Base 2.0.0~alpha1.12
 _ZN12CyclicBuffer4readEPhji@Base 2.0.0~alpha1.12
 _ZN12CyclicBuffer4sizeEv@Base 2.0.0~alpha1.12
 _ZN12CyclicBuffer5writeEPKhji@Base 2.0.0~alpha1.12
 _ZN12CyclicBuffer6unlockEv@Base 2.0.0~alpha1.12
 _ZN12CyclicBuffer8readDataEPhj@Base 2.0.0~alpha1.12
 _ZN12CyclicBuffer8setEmptyEv@Base 2.0.0~alpha1.12
 _ZN12CyclicBuffer9writeDataEPKhj@Base 2.0.0~alpha1.12
 _ZN12CyclicBufferC1Ej@Base 2.0.0~alpha1.12
 _ZN12CyclicBufferC2Ej@Base 2.0.0~alpha1.12
 _ZN12CyclicBufferD1Ev@Base 2.0.0~alpha1.12
 _ZN12CyclicBufferD2Ev@Base 2.0.0~alpha1.12
 _ZN13Mpegbitwindow7getbitsEi@Base 2.0.0~alpha1.12
 _ZN14Mpegfileplayer10initializeEPv@Base 2.0.0~alpha1.12
 _ZN14Mpegfileplayer11set8bitmodeEv@Base 2.0.0~alpha1.12
 _ZN14Mpegfileplayer12elapsed_timeEv@Base 2.0.0~alpha1.12
 _ZN14Mpegfileplayer14remaining_timeEv@Base 2.0.0~alpha1.12
 _ZN14Mpegfileplayer14setforcetomonoEs@Base 2.0.0~alpha1.12
 _ZN14Mpegfileplayer16setdownfrequencyEi@Base 2.0.0~alpha1.12
 _ZN14Mpegfileplayer3runEi@Base 2.0.0~alpha1.12
 _ZN14Mpegfileplayer4skipEi@Base 2.0.0~alpha1.12
 _ZN14Mpegfileplayer4stopEv@Base 2.0.0~alpha1.12
 _ZN14Mpegfileplayer5pauseEv@Base 2.0.0~alpha1.12
 _ZN14Mpegfileplayer5readyEv@Base 2.0.0~alpha1.12
 _ZN14Mpegfileplayer6rewindEi@Base 2.0.0~alpha1.12
 _ZN14Mpegfileplayer7forwardEi@Base 2.0.0~alpha1.12
 _ZN14Mpegfileplayer7playingEv@Base 2.0.0~alpha1.12
 _ZN14Mpegfileplayer7unpauseEv@Base 2.0.0~alpha1.12
 _ZN14Mpegfileplayer8openfileEPKcS1_9soundtype@Base 2.0.0~alpha1.12
 _ZN14Mpegfileplayer9closefileEv@Base 2.0.0~alpha1.12
 _ZN14MpegfileplayerC1EN10Fileplayer13audiodriver_tE@Base 2.0.0~alpha1.12
 _ZN14MpegfileplayerC2EN10Fileplayer13audiodriver_tE@Base 2.0.0~alpha1.12
 _ZN14MpegfileplayerD0Ev@Base 2.0.0~alpha1.12
 _ZN14MpegfileplayerD1Ev@Base 2.0.0~alpha1.12
 _ZN14MpegfileplayerD2Ev@Base 2.0.0~alpha1.12
 _ZN14Wavefileplayer10initializeEPv@Base 2.0.0~alpha1.12
 _ZN14Wavefileplayer11set8bitmodeEv@Base 2.0.0~alpha1.12
 _ZN14Wavefileplayer12elapsed_timeEv@Base 2.0.0~alpha1.12
 _ZN14Wavefileplayer14remaining_timeEv@Base 2.0.0~alpha1.12
 _ZN14Wavefileplayer14setforcetomonoEs@Base 2.0.0~alpha1.12
 _ZN14Wavefileplayer16setdownfrequencyEi@Base 2.0.0~alpha1.12
 _ZN14Wavefileplayer3runEi@Base 2.0.0~alpha1.12
 _ZN14Wavefileplayer4skipEi@Base 2.0.0~alpha1.12
 _ZN14Wavefileplayer4stopEv@Base 2.0.0~alpha1.12
 _ZN14Wavefileplayer5pauseEv@Base 2.0.0~alpha1.12
 _ZN14Wavefileplayer5readyEv@Base 2.0.0~alpha1.12
 _ZN14Wavefileplayer6rewindEi@Base 2.0.0~alpha1.12
 _ZN14Wavefileplayer7forwardEi@Base 2.0.0~alpha1.12
 _ZN14Wavefileplayer7playingEv@Base 2.0.0~alpha1.12
 _ZN14Wavefileplayer7unpauseEv@Base 2.0.0~alpha1.12
 _ZN14Wavefileplayer8openfileEPKcS1_9soundtype@Base 2.0.0~alpha1.12
 _ZN14Wavefileplayer9closefileEv@Base 2.0.0~alpha1.12
 _ZN14WavefileplayerC1EN10Fileplayer13audiodriver_tE@Base 2.0.0~alpha1.12
 _ZN14WavefileplayerC2EN10Fileplayer13audiodriver_tE@Base 2.0.0~alpha1.12
 _ZN14WavefileplayerD0Ev@Base 2.0.0~alpha1.12
 _ZN14WavefileplayerD1Ev@Base 2.0.0~alpha1.12
 _ZN14WavefileplayerD2Ev@Base 2.0.0~alpha1.12
 _ZN16Soundinputstream5hopenEPKcPi@Base 2.0.0~alpha1.12
 _ZN16SoundinputstreamC1Ev@Base 2.0.0~alpha1.12
 _ZN16SoundinputstreamC2Ev@Base 2.0.0~alpha1.12
 _ZN16SoundinputstreamD0Ev@Base 2.0.0~alpha1.12
 _ZN16SoundinputstreamD1Ev@Base 2.0.0~alpha1.12
 _ZN16SoundinputstreamD2Ev@Base 2.0.0~alpha1.12
 _ZN24Soundinputstreamfromfile11_readbufferEPci@Base 2.0.0~alpha1.12
 _ZN24Soundinputstreamfromfile11getpositionEv@Base 2.0.0~alpha1.12
 _ZN24Soundinputstreamfromfile11setpositionEi@Base 2.0.0~alpha1.12
 _ZN24Soundinputstreamfromfile13getbytedirectEv@Base 2.0.0~alpha1.12
 _ZN24Soundinputstreamfromfile3eofEv@Base 2.0.0~alpha1.12
 _ZN24Soundinputstreamfromfile4openEPKc@Base 2.0.0~alpha1.12
 _ZN24Soundinputstreamfromfile5closeEv@Base 2.0.0~alpha1.12
 _ZN24Soundinputstreamfromfile7getsizeEv@Base 2.0.0~alpha1.12
 _ZN24Soundinputstreamfromfile8getblockEPci@Base 2.0.0~alpha1.12
 _ZN24SoundinputstreamfromfileC1Ev@Base 2.0.0~alpha1.12
 _ZN24SoundinputstreamfromfileC2Ev@Base 2.0.0~alpha1.12
 _ZN24SoundinputstreamfromfileD0Ev@Base 2.0.0~alpha1.12
 _ZN24SoundinputstreamfromfileD1Ev@Base 2.0.0~alpha1.12
 _ZN24SoundinputstreamfromfileD2Ev@Base 2.0.0~alpha1.12
 _ZN24Soundinputstreamfromhttp10readstringEPciP8_IO_FILE@Base 2.0.0~alpha1.12
 _ZN24Soundinputstreamfromhttp11_readbufferEPci@Base 2.0.0~alpha1.12
 _ZN24Soundinputstreamfromhttp11getpositionEv@Base 2.0.0~alpha1.12
 _ZN24Soundinputstreamfromhttp11setpositionEi@Base 2.0.0~alpha1.12
 _ZN24Soundinputstreamfromhttp11writestringEiPc@Base 2.0.0~alpha1.12
 _ZN24Soundinputstreamfromhttp13getbytedirectEv@Base 2.0.0~alpha1.12
 _ZN24Soundinputstreamfromhttp3eofEv@Base 2.0.0~alpha1.12
 _ZN24Soundinputstreamfromhttp4openEPKc@Base 2.0.0~alpha1.12
 _ZN24Soundinputstreamfromhttp5closeEv@Base 2.0.0~alpha1.12
 _ZN24Soundinputstreamfromhttp7getsizeEv@Base 2.0.0~alpha1.12
 _ZN24Soundinputstreamfromhttp8getblockEPci@Base 2.0.0~alpha1.12
 _ZN24Soundinputstreamfromhttp9http_openEPKc@Base 2.0.0~alpha1.12
 _ZN24SoundinputstreamfromhttpC1Ev@Base 2.0.0~alpha1.12
 _ZN24SoundinputstreamfromhttpC2Ev@Base 2.0.0~alpha1.12
 _ZN24SoundinputstreamfromhttpD0Ev@Base 2.0.0~alpha1.12
 _ZN24SoundinputstreamfromhttpD1Ev@Base 2.0.0~alpha1.12
 _ZN24SoundinputstreamfromhttpD2Ev@Base 2.0.0~alpha1.12
 _ZN9Mpegtoraw10generate_2Ev@Base 2.0.0~alpha1.12
 _ZN9Mpegtoraw10initializeEPKc@Base 2.0.0~alpha1.12
 _ZN9Mpegtoraw10loadheaderEb@Base 2.0.0~alpha1.12
 _ZN9Mpegtoraw11clearbufferEv@Base 2.0.0~alpha1.12
 _ZN9Mpegtoraw11frequenciesE@Base 2.0.0~alpha1.12
 _ZN9Mpegtoraw12layer3hybridEiiPA18_fPA32_f@Base 2.0.0~alpha1.12
 _ZN9Mpegtoraw13computebufferEPfPA512_f@Base 2.0.0~alpha1.12
 _ZN9Mpegtoraw13extractlayer1Ev@Base 2.0.0~alpha1.12
 _ZN9Mpegtoraw13extractlayer2Ev@Base 2.0.0~alpha1.12
 _ZN9Mpegtoraw13extractlayer3Ev@Base 2.0.0~alpha1.12
 _ZN9Mpegtoraw14generatesingleEv@Base 2.0.0~alpha1.12
 _ZN9Mpegtoraw14getforcetomonoEv@Base 2.0.0~alpha1.12
 _ZN9Mpegtoraw14getpcmperframeEv@Base 2.0.0~alpha1.12
 _ZN9Mpegtoraw14setforcetomonoEs@Base 2.0.0~alpha1.12
 _ZN9Mpegtoraw15computebuffer_2EPfPA512_f@Base 2.0.0~alpha1.12
 _ZN9Mpegtoraw15extractlayer3_2Ev@Base 2.0.0~alpha1.12
 _ZN9Mpegtoraw16generatesingle_2Ev@Base 2.0.0~alpha1.12
 _ZN9Mpegtoraw16getdownfrequencyEv@Base 2.0.0~alpha1.12
 _ZN9Mpegtoraw16layer3initializeEv@Base 2.0.0~alpha1.12
 _ZN9Mpegtoraw16setdownfrequencyEi@Base 2.0.0~alpha1.12
 _ZN9Mpegtoraw16subbandsynthesisEPfS0_@Base 2.0.0~alpha1.12
 _ZN9Mpegtoraw17layer3getsideinfoEv@Base 2.0.0~alpha1.12
 _ZN9Mpegtoraw17scalefactorstableE@Base 2.0.0~alpha1.12
 _ZN9Mpegtoraw18subbandsynthesis_2EPfS0_@Base 2.0.0~alpha1.12
 _ZN9Mpegtoraw19layer3getsideinfo_2Ev@Base 2.0.0~alpha1.12
 _ZN9Mpegtoraw19layer3huffmandecodeEiiPA18_i@Base 2.0.0~alpha1.12
 _ZN9Mpegtoraw21layer3getscalefactorsEii@Base 2.0.0~alpha1.12
 _ZN9Mpegtoraw22layer3dequantizesampleEiiPA18_iPA18_f@Base 2.0.0~alpha1.12
 _ZN9Mpegtoraw23layer3getscalefactors_2Ei@Base 2.0.0~alpha1.12
 _ZN9Mpegtoraw25layer3reorderandantialiasEiiPA18_fS1_@Base 2.0.0~alpha1.12
 _ZN9Mpegtoraw2htE@Base 2.0.0~alpha1.12
 _ZN9Mpegtoraw3runEi@Base 2.0.0~alpha1.12
 _ZN9Mpegtoraw6filterE@Base 2.0.0~alpha1.12
 _ZN9Mpegtoraw6hcos_4E@Base 2.0.0~alpha1.12
 _ZN9Mpegtoraw6hcos_8E@Base 2.0.0~alpha1.12
 _ZN9Mpegtoraw7bitrateE@Base 2.0.0~alpha1.12
 _ZN9Mpegtoraw7getbitsEi@Base 2.0.0~alpha1.12
 _ZN9Mpegtoraw7hcos_16E@Base 2.0.0~alpha1.12
 _ZN9Mpegtoraw7hcos_32E@Base 2.0.0~alpha1.12
 _ZN9Mpegtoraw7hcos_64E@Base 2.0.0~alpha1.12
 _ZN9Mpegtoraw8generateEv@Base 2.0.0~alpha1.12
 _ZN9Mpegtoraw8setframeEi@Base 2.0.0~alpha1.12
 _ZN9MpegtorawC1EP16SoundinputstreamP11Soundplayer@Base 2.0.0~alpha1.12
 _ZN9MpegtorawC2EP16SoundinputstreamP11Soundplayer@Base 2.0.0~alpha1.12
 _ZN9MpegtorawD1Ev@Base 2.0.0~alpha1.12
 _ZN9MpegtorawD2Ev@Base 2.0.0~alpha1.12
 _ZN9Rawtofile10opendeviceEPKc@Base 2.0.0~alpha1.12
 _ZN9Rawtofile11putblock_ntEPvi@Base 2.0.0~alpha1.12
 _ZN9Rawtofile11set8bitmodeEv@Base 2.0.0~alpha1.12
 _ZN9Rawtofile11setfiletypeE9soundtype@Base 2.0.0~alpha1.12
 _ZN9Rawtofile12attachdeviceEv@Base 2.0.0~alpha1.12
 _ZN9Rawtofile12setsoundtypeEiii@Base 2.0.0~alpha1.12
 _ZN9Rawtofile13releasedeviceEv@Base 2.0.0~alpha1.12
 _ZN9Rawtofile8putblockEPvi@Base 2.0.0~alpha1.12
 _ZN9RawtofileC1Ei@Base 2.0.0~alpha1.12
 _ZN9RawtofileC2Ei@Base 2.0.0~alpha1.12
 _ZN9RawtofileD0Ev@Base 2.0.0~alpha1.12
 _ZN9RawtofileD1Ev@Base 2.0.0~alpha1.12
 _ZN9RawtofileD2Ev@Base 2.0.0~alpha1.12
 _ZN9Wavetoraw10initializeEv@Base 2.0.0~alpha1.12
 _ZN9Wavetoraw15setcurrentpointEi@Base 2.0.0~alpha1.12
 _ZN9Wavetoraw3runEv@Base 2.0.0~alpha1.12
 _ZN9Wavetoraw8testwaveEPc@Base 2.0.0~alpha1.12
 _ZN9WavetorawC1EP16SoundinputstreamP11Soundplayer@Base 2.0.0~alpha1.12
 _ZN9WavetorawC2EP16SoundinputstreamP11Soundplayer@Base 2.0.0~alpha1.12
 _ZN9WavetorawD1Ev@Base 2.0.0~alpha1.12
 _ZN9WavetorawD2Ev@Base 2.0.0~alpha1.12
 _ZTI10Fileplayer@Base 2.0.0~alpha1.12
 _ZTI11Soundplayer@Base 2.0.0~alpha1.12
 _ZTI14Mpegfileplayer@Base 2.0.0~alpha1.12
 _ZTI14Wavefileplayer@Base 2.0.0~alpha1.12
 _ZTI16Soundinputstream@Base 2.0.0~alpha1.12
 _ZTI24Soundinputstreamfromfile@Base 2.0.0~alpha1.12
 _ZTI24Soundinputstreamfromhttp@Base 2.0.0~alpha1.12
 _ZTI9Rawtofile@Base 2.0.0~alpha1.12
 _ZTS10Fileplayer@Base 2.0.0~alpha1.12
 _ZTS11Soundplayer@Base 2.0.0~alpha1.12
 _ZTS14Mpegfileplayer@Base 2.0.0~alpha1.12
 _ZTS14Wavefileplayer@Base 2.0.0~alpha1.12
 _ZTS16Soundinputstream@Base 2.0.0~alpha1.12
 _ZTS24Soundinputstreamfromfile@Base 2.0.0~alpha1.12
 _ZTS24Soundinputstreamfromhttp@Base 2.0.0~alpha1.12
 _ZTS9Rawtofile@Base 2.0.0~alpha1.12
 _ZTV10Fileplayer@Base 2.0.0~alpha1.12
 _ZTV11Soundplayer@Base 2.0.0~alpha1.12
 _ZTV14Mpegfileplayer@Base 2.0.0~alpha1.12
 _ZTV14Wavefileplayer@Base 2.0.0~alpha1.12
 _ZTV16Soundinputstream@Base 2.0.0~alpha1.12
 _ZTV24Soundinputstreamfromfile@Base 2.0.0~alpha1.12
 _ZTV24Soundinputstreamfromhttp@Base 2.0.0~alpha1.12
 _ZTV9Rawtofile@Base 2.0.0~alpha1.12
 proxyip@Base 2.0.0~alpha1.12
 proxyport@Base 2.0.0~alpha1.12
 proxyurl@Base 2.0.0~alpha1.12
