libqosmgr.so.0 libqosmgr0 #MINVER#
 _Z9quickSortI29ResourceUtilizationMultiPointEvPT_ii@Base 2.0.0~beta1.1
 _Z9quickSortIdEvPT_ii@Base 2.0.0~beta1.1
 _ZN10PingerHostD1Ev@Base 2.0.0~beta1.1
 _ZN10PingerHostD2Ev@Base 2.0.0~beta1.1
 _ZN12InternetFlowD1Ev@Base 2.0.0~beta1.1
 _ZN16BandwidthManager10timerEventEv@Base 2.0.0~beta1.1
 _ZN16BandwidthManager11reportEventEP22ManagedStreamInterfacePK24RTCPReceptionReportBlockj@Base 2.0.0~beta1.1
 _ZN16BandwidthManager12removeStreamEP22ManagedStreamInterface@Base 2.0.0~beta1.1
 _ZN16BandwidthManager12setLogStreamEPSo@Base 2.0.0~beta1.1
 _ZN16BandwidthManager12updateStreamEP22ManagedStreamInterface@Base 2.0.0~beta1.1
 _ZN16BandwidthManager13SimulatorTimeE@Base 2.0.0~beta1.1
 _ZN16BandwidthManager16bufferFlushEventEP22ManagedStreamInterfacej@Base 2.0.0~beta1.1
 _ZN16BandwidthManager17getRoundTripTimesEP17StreamDescription@Base 2.0.0~beta1.1
 _ZN16BandwidthManager17updateReservationEP17StreamDescription@Base 2.0.0~beta1.1
 _ZN16BandwidthManager18doPartialRemappingEP17StreamDescription@Base 2.0.0~beta1.1
 _ZN16BandwidthManager19doCompleteRemappingEv@Base 2.0.0~beta1.1
 _ZN16BandwidthManager27calculateSessionMultiPointsEP18SessionDescriptionjjP29ResourceUtilizationMultiPoint@Base 2.0.0~beta1.1
 _ZN16BandwidthManager9addStreamEP22ManagedStreamInterfacejPKc@Base 2.0.0~beta1.1
 _ZN16BandwidthManagerC1EP21ServiceLevelAgreementP19RoundTripTimePinger@Base 2.0.0~beta1.1
 _ZN16BandwidthManagerC2EP21ServiceLevelAgreementP19RoundTripTimePinger@Base 2.0.0~beta1.1
 _ZN16BandwidthManagerD0Ev@Base 2.0.0~beta1.1
 _ZN16BandwidthManagerD1Ev@Base 2.0.0~beta1.1
 _ZN16BandwidthManagerD2Ev@Base 2.0.0~beta1.1
 _ZN16MultiTimerThreadILj1EE3runEv@Base 2.0.0~beta1.1
 _ZN16MultiTimerThreadILj1EE4stopEv@Base 2.0.0~beta1.1
 _ZN16MultiTimerThreadILj1EE6cancelEv@Base 2.0.0~beta1.1
 _ZN17StreamDescription35calculatePossibleLayerClassMappingsER24ResourceUtilizationPointPK21ServiceLevelAgreementPK22AbstractQoSDescription@Base 2.0.0~beta1.1
 _ZN17StreamDescriptionC1Ev@Base 2.0.0~beta1.1
 _ZN17StreamDescriptionC2Ev@Base 2.0.0~beta1.1
 _ZN17StreamDescriptionD1Ev@Base 2.0.0~beta1.1
 _ZN17StreamDescriptionD2Ev@Base 2.0.0~beta1.1
 _ZN19RoundTripTimePinger10removeHostERK15InternetAddressh@Base 2.0.0~beta1.1
 _ZN19RoundTripTimePinger10timerEventEv@Base 2.0.0~beta1.1
 _ZN19RoundTripTimePinger11writeGPDataERSo@Base 2.0.0~beta1.1
 _ZN19RoundTripTimePinger12receiveEcho4Ev@Base 2.0.0~beta1.1
 _ZN19RoundTripTimePinger12receiveEcho6Ev@Base 2.0.0~beta1.1
 _ZN19RoundTripTimePinger13writeGPHeaderERSoPKcj@Base 2.0.0~beta1.1
 _ZN19RoundTripTimePinger14activateLoggerEPSoS0_PKc@Base 2.0.0~beta1.1
 _ZN19RoundTripTimePinger16checkUnreachableER10PingerHost@Base 2.0.0~beta1.1
 _ZN19RoundTripTimePinger16deactivateLoggerEv@Base 2.0.0~beta1.1
 _ZN19RoundTripTimePinger16getRoundTripTimeERK15InternetAddressh@Base 2.0.0~beta1.1
 _ZN19RoundTripTimePinger17calculateChecksumEPKtjt@Base 2.0.0~beta1.1
 _ZN19RoundTripTimePinger7addHostERK15InternetAddressh@Base 2.0.0~beta1.1
 _ZN19RoundTripTimePinger9sendPing4ERK15InternetAddressht@Base 2.0.0~beta1.1
 _ZN19RoundTripTimePinger9sendPing6ERK15InternetAddressht@Base 2.0.0~beta1.1
 _ZN19RoundTripTimePingerD0Ev@Base 2.0.0~beta1.1
 _ZN19RoundTripTimePingerD1Ev@Base 2.0.0~beta1.1
 _ZN19RoundTripTimePingerD2Ev@Base 2.0.0~beta1.1
 _ZN21ServiceLevelAgreement4loadEPKc@Base 2.0.0~beta1.1
 _ZN21ServiceLevelAgreementC1Ev@Base 2.0.0~beta1.1
 _ZN21ServiceLevelAgreementC2Ev@Base 2.0.0~beta1.1
 _ZN21ServiceLevelAgreementD1Ev@Base 2.0.0~beta1.1
 _ZN21ServiceLevelAgreementD2Ev@Base 2.0.0~beta1.1
 _ZNK21ServiceLevelAgreement34getPossibleClassesForBandwidthInfoEPK24AbstractLayerDescriptionPj@Base 2.0.0~beta1.1
 _ZNSt8_Rb_treeI10PingerHostS0_St9_IdentityIS0_ESt4lessIS0_ESaIS0_EE10_M_insert_EPKSt18_Rb_tree_node_baseS9_RKS0_@Base 2.0.0~beta1.1
 _ZNSt8_Rb_treeI10PingerHostS0_St9_IdentityIS0_ESt4lessIS0_ESaIS0_EE8_M_eraseEPSt13_Rb_tree_nodeIS0_E@Base 2.0.0~beta1.1
 _ZNSt8_Rb_treeIP22ManagedStreamInterfaceSt4pairIKS1_P17StreamDescriptionESt10_Select1stIS6_ESt4lessIS1_ESaIS6_EE15_M_insert_equalERKS6_@Base 2.0.0~beta1.1
 _ZNSt8_Rb_treeIP22ManagedStreamInterfaceSt4pairIKS1_P17StreamDescriptionESt10_Select1stIS6_ESt4lessIS1_ESaIS6_EE5eraseERS3_@Base 2.0.0~beta1.1
 _ZNSt8_Rb_treeIP22ManagedStreamInterfaceSt4pairIKS1_P17StreamDescriptionESt10_Select1stIS6_ESt4lessIS1_ESaIS6_EE8_M_eraseEPSt13_Rb_tree_nodeIS6_E@Base 2.0.0~beta1.1
 _ZNSt8_Rb_treeIjSt4pairIKjP18SessionDescriptionESt10_Select1stIS4_ESt4lessIjESaIS4_EE15_M_insert_equalERKS4_@Base 2.0.0~beta1.1
 _ZNSt8_Rb_treeIjSt4pairIKjP18SessionDescriptionESt10_Select1stIS4_ESt4lessIjESaIS4_EE8_M_eraseEPSt13_Rb_tree_nodeIS4_E@Base 2.0.0~beta1.1
 _ZTI16BandwidthManager@Base 2.0.0~beta1.1
 _ZTI19QoSManagerInterface@Base 2.0.0~beta1.1
 _ZTI19RoundTripTimePinger@Base 2.0.0~beta1.1
 _ZTS16BandwidthManager@Base 2.0.0~beta1.1
 _ZTS19QoSManagerInterface@Base 2.0.0~beta1.1
 _ZTS19RoundTripTimePinger@Base 2.0.0~beta1.1
 _ZTT16BandwidthManager@Base 2.0.0~beta1.1
 _ZTV16BandwidthManager@Base 2.0.0~beta1.1
 _ZTV19QoSManagerInterface@Base 2.0.0~beta1.1
 _ZTV19RoundTripTimePinger@Base 2.0.0~beta1.1
 _ZlsRSo21ServiceLevelAgreement@Base 2.0.0~beta1.1
 _ZlsRSoR19RoundTripTimePinger@Base 2.0.0~beta1.1
 _ZlsRSoRK29ResourceUtilizationMultiPoint@Base 2.0.0~beta1.1
 _ZlsRSoRK30ResourceUtilizationSimplePoint@Base 2.0.0~beta1.1
 (c++|regex)"^BandwidthManager::doAllocationTrials\(.*\)@Base$" 2.0.0~beta1.1
 (c++|regex)"^BandwidthManager::intervalChangeEvent\(.*\)@Base$" 2.0.0~beta1.1
 (c++|regex)"^BandwidthManager::tryAllocation\(.*\)@Base$" 2.0.0~beta1.1
 (c++|regex)"^RoundTripTimePinger::calculateRoundTripTime\(.*\)@Base$" 2.0.0~beta1.1
 (c++|regex)"^RoundTripTimePinger::RoundTripTimePinger\(.*\)@Base$" 2.0.0~beta1.1
 (c++|regex)"^StreamDescription::init\(.*\)@Base$" 2.0.0~beta1.1
 (c++|regex)"^StreamDescription::tryAllocation\(.*\)@Base$" 2.0.0~beta1.1
 (c++|regex)"^virtual thunk to BandwidthManager::intervalChangeEvent\(.*\)@Base$" 2.0.0~beta1.1
 (c++)"virtual thunk to BandwidthManager::addStream(ManagedStreamInterface*, unsigned int, char const*)@Base" 2.0.0~beta1.1
 (c++)"virtual thunk to BandwidthManager::bufferFlushEvent(ManagedStreamInterface*, unsigned int)@Base" 2.0.0~beta1.1
 (c++)"virtual thunk to BandwidthManager::removeStream(ManagedStreamInterface*)@Base" 2.0.0~beta1.1
 (c++)"virtual thunk to BandwidthManager::reportEvent(ManagedStreamInterface*, RTCPReceptionReportBlock const*, unsigned int)@Base" 2.0.0~beta1.1
 (c++)"virtual thunk to BandwidthManager::updateStream(ManagedStreamInterface*)@Base" 2.0.0~beta1.1
 (c++)"virtual thunk to InternetFlow::~InternetFlow()@Base" 2.0.0~beta1.1
