librtpaudioserver.so.0 librtpaudioserver0 #MINVER#
 _ZN11AudioServer10appMessageEPN18RTCPAbstractServer6ClientEPKcPvj@Base 2.0.0~beta1.2
 _ZN11AudioServer11checkClientEPN18RTCPAbstractServer6ClientE@Base 2.0.0~beta1.2
 _ZN11AudioServer11sdesMessageEPN18RTCPAbstractServer6ClientEhPcj@Base 2.0.0~beta1.2
 _ZN11AudioServer11userCommandEPN18RTCPAbstractServer6ClientEPNS_4UserEP20AudioClientAppPacket@Base 2.0.0~beta1.2
 _ZN11AudioServer12deleteClientEPN18RTCPAbstractServer6ClientENS0_12DeleteReasonE@Base 2.0.0~beta1.2
 _ZN11AudioServer14receiverReportEPN18RTCPAbstractServer6ClientEP24RTCPReceptionReportBlockj@Base 2.0.0~beta1.2
 _ZN11AudioServer16managementUpdateEPN18RTCPAbstractServer6ClientEPNS_4UserE@Base 2.0.0~beta1.2
 _ZN11AudioServer18outOfMemoryWarningEv@Base 2.0.0~beta1.2
 _ZN11AudioServer9newClientEPN18RTCPAbstractServer6ClientEPKc@Base 2.0.0~beta1.2
 _ZN11AudioServerC1EP19QoSManagerInterfacejb@Base 2.0.0~beta1.2
 _ZN11AudioServerC2EP19QoSManagerInterfacejb@Base 2.0.0~beta1.2
 _ZN11AudioServerD0Ev@Base 2.0.0~beta1.2
 _ZN11AudioServerD1Ev@Base 2.0.0~beta1.2
 _ZN11AudioServerD2Ev@Base 2.0.0~beta1.2
 _ZN12InternetFlowD1Ev@Base 2.0.0~beta1.2
 _ZN16MultiTimerThreadILj1EE3runEv@Base 2.0.0~beta1.2
 _ZN16MultiTimerThreadILj1EE6cancelEv@Base 2.0.0~beta1.2
 _ZNSt8_Rb_treeIKjSt4pairIS0_PN11AudioServer4UserEESt10_Select1stIS5_ESt4lessIS0_ESaIS5_EE8_M_eraseEPSt13_Rb_tree_nodeIS5_E@Base 2.0.0~beta1.2
 _ZTI11AudioServer@Base 2.0.0~beta1.2
 _ZTS11AudioServer@Base 2.0.0~beta1.2
 _ZTV11AudioServer@Base 2.0.0~beta1.2
 (c++)"virtual thunk to InternetFlow::~InternetFlow()@Base" 2.0.0~beta1.2
