librtpaudioclient.so.0 librtpaudioclient0 #MINVER#
 _ZN11AudioClient11getPositionEv@Base 2.0.0~alpha1.4
 _ZN11AudioClient11sendCommandEb@Base 2.0.0~alpha1.4
 _ZN11AudioClient11setChannelsEh@Base 2.0.0~alpha1.4
 _ZN11AudioClient11setEncodingEj@Base 2.0.0~alpha1.4
 _ZN11AudioClient12setByteOrderEt@Base 2.0.0~alpha1.4
 _ZN11AudioClient15getEncodingNameEj@Base 2.0.0~alpha1.4
 _ZN11AudioClient15setSamplingRateEt@Base 2.0.0~alpha1.4
 _ZN11AudioClient20getRawBytesPerSecondEv@Base 2.0.0~alpha1.4
 _ZN11AudioClient4playEPKc@Base 2.0.0~alpha1.4
 _ZN11AudioClient4stopEv@Base 2.0.0~alpha1.4
 _ZN11AudioClient6changeEPKc@Base 2.0.0~alpha1.4
 _ZN11AudioClient7setBitsEh@Base 2.0.0~alpha1.4
 _ZN11AudioClient8setPauseEb@Base 2.0.0~alpha1.4
 _ZN11AudioClientC1EP20AudioWriterInterface@Base 2.0.0~alpha1.4
 _ZN11AudioClientC2EP20AudioWriterInterface@Base 2.0.0~alpha1.4
 _ZN11AudioClientD0Ev@Base 2.0.0~alpha1.4
 _ZN11AudioClientD1Ev@Base 2.0.0~alpha1.4
 _ZN11AudioClientD2Ev@Base 2.0.0~alpha1.4
 _ZN12InternetFlowD1Ev@Base 2.0.0~alpha1.4
 _ZN21AudioQualityInterfaceD0Ev@Base 2.0.0~alpha1.4
 _ZN21AudioQualityInterfaceD1Ev@Base 2.0.0~alpha1.4
 _ZN21AudioQualityInterfaceD2Ev@Base 2.0.0~alpha1.4
 _ZN31AdjustableAudioQualityInterfaceD0Ev@Base 2.0.0~alpha1.4
 _ZN31AdjustableAudioQualityInterfaceD1Ev@Base 2.0.0~alpha1.4
 _ZNK11AudioClient11getChannelsEv@Base 2.0.0~alpha1.4
 _ZNK11AudioClient12getByteOrderEv@Base 2.0.0~alpha1.4
 _ZNK11AudioClient12getMediaInfoEv@Base 2.0.0~alpha1.4
 _ZNK11AudioClient13getServerSSRCEj@Base 2.0.0~alpha1.4
 _ZNK11AudioClient14getPacketsLostEj@Base 2.0.0~alpha1.4
 _ZNK11AudioClient15getFractionLostEj@Base 2.0.0~alpha1.4
 _ZNK11AudioClient15getSamplingRateEv@Base 2.0.0~alpha1.4
 _ZNK11AudioClient16getBitsPerSampleEv@Base 2.0.0~alpha1.4
 _ZNK11AudioClient17getBytesPerSecondEv@Base 2.0.0~alpha1.4
 _ZNK11AudioClient19getOurAddressStringEN13SocketAddress11PrintFormatE@Base 2.0.0~alpha1.4
 _ZNK11AudioClient22getServerAddressStringEN13SocketAddress11PrintFormatE@Base 2.0.0~alpha1.4
 _ZNK11AudioClient7getBitsEv@Base 2.0.0~alpha1.4
 _ZNK11AudioClient9getJitterEj@Base 2.0.0~alpha1.4
 _ZNSt8_Rb_treeIKjSt4pairIS0_P21AudioDecoderInterfaceESt10_Select1stIS4_ESt4lessIS0_ESaIS4_EE15_M_insert_equalERKS4_@Base 2.0.0~alpha1.4
 _ZNSt8_Rb_treeIKjSt4pairIS0_P21AudioDecoderInterfaceESt10_Select1stIS4_ESt4lessIS0_ESaIS4_EE8_M_eraseEPSt13_Rb_tree_nodeIS4_E@Base 2.0.0~alpha1.4
 _ZNSt8multimapIKjP21AudioDecoderInterfaceSt4lessIS0_ESaISt4pairIS0_S2_EEED1Ev@Base 2.0.0~alpha1.4
 _ZNSt8multimapIKjP21AudioDecoderInterfaceSt4lessIS0_ESaISt4pairIS0_S2_EEED2Ev@Base 2.0.0~alpha1.4
 _ZTC11AudioClient0_31AdjustableAudioQualityInterface@Base 2.0.0~alpha1.4
 _ZTI11AudioClient@Base 2.0.0~alpha1.4
 _ZTI21AudioQualityInterface@Base 2.0.0~alpha1.4
 _ZTI31AdjustableAudioQualityInterface@Base 2.0.0~alpha1.4
 _ZTS11AudioClient@Base 2.0.0~alpha1.4
 _ZTS21AudioQualityInterface@Base 2.0.0~alpha1.4
 _ZTS31AdjustableAudioQualityInterface@Base 2.0.0~alpha1.4
 _ZTT11AudioClient@Base 2.0.0~alpha1.4
 _ZTT31AdjustableAudioQualityInterface@Base 2.0.0~alpha1.4
 _ZTV11AudioClient@Base 2.0.0~alpha1.4
 _ZTV21AudioQualityInterface@Base 2.0.0~alpha1.4
 _ZTV31AdjustableAudioQualityInterface@Base 2.0.0~alpha1.4
 _ZTv0_n104_N11AudioClient11setChannelsEh@Base 2.0.0~alpha1.4
 _ZTv0_n112_N11AudioClient12setByteOrderEt@Base 2.0.0~alpha1.4
 _ZTv0_n24_N11AudioClientD0Ev@Base 2.0.0~alpha1.4
 _ZTv0_n24_N11AudioClientD1Ev@Base 2.0.0~alpha1.4
 _ZTv0_n24_N12InternetFlowD1Ev@Base 2.0.0~alpha1.4
 _ZTv0_n24_N31AdjustableAudioQualityInterfaceD0Ev@Base 2.0.0~alpha1.4
 _ZTv0_n24_N31AdjustableAudioQualityInterfaceD1Ev@Base 2.0.0~alpha1.4
 _ZTv0_n32_NK11AudioClient15getSamplingRateEv@Base 2.0.0~alpha1.4
 _ZTv0_n40_NK11AudioClient7getBitsEv@Base 2.0.0~alpha1.4
 _ZTv0_n48_NK11AudioClient11getChannelsEv@Base 2.0.0~alpha1.4
 _ZTv0_n56_NK11AudioClient12getByteOrderEv@Base 2.0.0~alpha1.4
 _ZTv0_n64_NK11AudioClient17getBytesPerSecondEv@Base 2.0.0~alpha1.4
 _ZTv0_n72_NK11AudioClient16getBitsPerSampleEv@Base 2.0.0~alpha1.4
 _ZTv0_n88_N11AudioClient15setSamplingRateEt@Base 2.0.0~alpha1.4
 _ZTv0_n96_N11AudioClient7setBitsEh@Base 2.0.0~alpha1.4
